; Function Attrs: null_pointer_is_valid sspstrong uwtable
define internal fastcc void @add_item_value_hexstring(ptr noundef %0, ptr noundef readonly captures(none) %1, ptr noundef %2, ptr noundef %3, i32 noundef %4, i32 noundef %5) unnamed_addr #0 {
  %7 = getelementptr inbounds nuw i8, ptr %1, i64 408
  %8 = load ptr, ptr %7, align 8
  %9 = tail call ptr @tvb_bytes_to_str(ptr noundef %8, ptr noundef %0, i32 noundef %5, i32 noundef 16)
  %10 = tail call ptr (ptr, i32, ptr, i32, i32, ptr, ...) @proto_tree_add_none_format(ptr noundef %3, i32 noundef %4, ptr noundef %0, i32 noundef %5, i32 noundef 16, ptr noundef nonnull @.str.1170, ptr noundef nonnull @.str.1094, ptr noundef %9)
  %11 = load ptr, ptr %7, align 8
  %12 = tail call ptr @tvb_bytes_to_str(ptr noundef %11, ptr noundef %0, i32 noundef %5, i32 noundef 16)
  tail call void (ptr, ptr, ...) @proto_item_append_text(ptr noundef %2, ptr noundef nonnull @.str.1171, ptr noundef nonnull @.str.1094, ptr noundef %12)
  ret void
}